; Function Attrs: mustprogress uwtable
define noundef i32 @_ZN6LibRaw11open_bufferEPKvm(ptr noundef nonnull align 8 dereferenceable(767680) %0, ptr noundef %1, i64 noundef %2) local_unnamed_addr #0 align 2 personality ptr @__gxx_personality_v0 {
  %magicptr = ptrtoint ptr %1 to i64
  switch i64 %magicptr, label %4 [
    i64 -1, label %42
    i64 0, label %42
  ]

4:                                                ; preds = %3
  %5 = icmp ugt i64 %2, 2147483647
  br i1 %5, label %42, label %6

6:                                                ; preds = %4
  %7 = invoke noalias noundef nonnull dereferenceable(32) ptr @_Znwm(i64 noundef 32) #18
          to label %8 unwind label %14

8:                                                ; preds = %6
  invoke void @_ZN24LibRaw_buffer_datastreamC1EPKvm(ptr noundef nonnull align 8 dereferenceable(32) %7, ptr noundef %1, i64 noundef %2)
          to label %9 unwind label %16

9:                                                ; preds = %8
  %10 = load ptr, ptr %7, align 8, !tbaa !6
  %11 = getelementptr inbounds nuw i8, ptr %10, i64 16
  %12 = load ptr, ptr %11, align 8
  %13 = tail call noundef i32 %12(ptr noundef nonnull align 8 dereferenceable(32) %7)
  %.not = icmp eq i32 %13, 0
  br i1 %.not, label %26, label %30

14:                                               ; preds = %6
  %15 = landingpad { ptr, i32 }
          cleanup
          catch ptr @_ZTISt9bad_alloc
  br label %18

16:                                               ; preds = %8
  %17 = landingpad { ptr, i32 }
          cleanup
          catch ptr @_ZTISt9bad_alloc
  tail call void @_ZdlPvm(ptr noundef nonnull %7, i64 noundef 32) #19
  br label %18

18:                                               ; preds = %16, %14
  %.pn = phi { ptr, i32 } [ %17, %16 ], [ %15, %14 ]
  %.022 = extractvalue { ptr, i32 } %.pn, 1
  %19 = tail call i32 @llvm.eh.typeid.for.p0(ptr nonnull @_ZTISt9bad_alloc) #17
  %20 = icmp eq i32 %.022, %19
  br i1 %20, label %21, label %41

21:                                               ; preds = %18
  %.020 = extractvalue { ptr, i32 } %.pn, 0
  %22 = tail call ptr @__cxa_begin_catch(ptr %.020) #17
  invoke void @_ZN6LibRaw7recycleEv(ptr noundef nonnull align 8 dereferenceable(767680) %0)
          to label %23 unwind label %24

23:                                               ; preds = %21
  tail call void @__cxa_end_catch()
  br label %42

24:                                               ; preds = %21
  %25 = landingpad { ptr, i32 }
          cleanup
  invoke void @__cxa_end_catch()
          to label %41 unwind label %43

26:                                               ; preds = %9
  %27 = load ptr, ptr %7, align 8, !tbaa !6
  %28 = getelementptr inbounds nuw i8, ptr %27, i64 8
  %29 = load ptr, ptr %28, align 8
  tail call void %29(ptr noundef nonnull align 8 dereferenceable(32) %7) #17
  br label %42

30:                                               ; preds = %9
  %31 = getelementptr inbounds nuw i8, ptr %0, i64 381432
  store i32 0, ptr %31, align 8, !tbaa !9
  %32 = load ptr, ptr %0, align 8, !tbaa !6
  %33 = load ptr, ptr %32, align 8
  %34 = tail call noundef i32 %33(ptr noundef nonnull align 8 dereferenceable(767680) %0, ptr noundef nonnull %7)
  %35 = icmp eq i32 %34, 0
  br i1 %35, label %40, label %36

36:                                               ; preds = %30
  %37 = load ptr, ptr %7, align 8, !tbaa !6
  %38 = getelementptr inbounds nuw i8, ptr %37, i64 8
  %39 = load ptr, ptr %38, align 8
  tail call void %39(ptr noundef nonnull align 8 dereferenceable(32) %7) #17
  br label %40

40:                                               ; preds = %30, %36
  %storemerge = phi i32 [ 0, %36 ], [ 1, %30 ]
  store i32 %storemerge, ptr %31, align 8, !tbaa !9
  br label %42

41:                                               ; preds = %24, %18
  %.merged = phi { ptr, i32 } [ %.pn, %18 ], [ %25, %24 ]
  resume { ptr, i32 } %.merged

42:                                               ; preds = %23, %26, %40, %4, %3, %3
  %.0 = phi i32 [ -100009, %3 ], [ -100009, %3 ], [ -100012, %4 ], [ %34, %40 ], [ -100009, %26 ], [ -100007, %23 ]
  ret i32 %.0

43:                                               ; preds = %24
  %44 = landingpad { ptr, i32 }
          catch ptr null
  %45 = extractvalue { ptr, i32 } %44, 0
  tail call void @__clang_call_terminate(ptr %45) #20
  unreachable
}